; Function Attrs: null_pointer_is_valid sspstrong uwtable
define internal void @renderQueryPictIndexValues_Reply(ptr noundef %0, ptr noundef readonly captures(none) %1, ptr noundef captures(none) %2, ptr noundef %3, i32 noundef %4) #1 {
  %6 = getelementptr inbounds nuw i8, ptr %1, i64 8
  %7 = load ptr, ptr %6, align 8
  tail call void (ptr, i32, ptr, ...) @col_append_fstr(ptr noundef %7, i32 noundef 25, ptr noundef nonnull @.str.15253)
  %8 = load i32, ptr @hf_x11_reply, align 4
  %9 = tail call fastcc i32 @field8(ptr noundef %0, ptr noundef %2, ptr noundef %3, i32 noundef %8, i32 noundef %4)
  %10 = load i32, ptr @hf_x11_unused, align 4
  %11 = load i32, ptr %2, align 4
  %12 = tail call ptr @proto_tree_add_item(ptr noundef %3, i32 noundef %10, ptr noundef %0, i32 noundef %11, i32 noundef 1, i32 noundef 0)
  %13 = load i32, ptr %2, align 4
  %14 = add i32 %13, 1
  store i32 %14, ptr %2, align 4
  %15 = tail call zeroext i16 @tvb_get_uint16(ptr noundef %0, i32 noundef %14, i32 noundef %4)
  %16 = zext i16 %15 to i32
  %17 = load i32, ptr @hf_x11_reply_sequencenumber, align 4
  %18 = load i32, ptr %2, align 4
  %19 = tail call ptr (ptr, i32, ptr, i32, i32, i32, ptr, ...) @proto_tree_add_uint_format_value(ptr noundef %3, i32 noundef %17, ptr noundef %0, i32 noundef %18, i32 noundef 2, i32 noundef %16, ptr noundef nonnull @.str.15254, i32 noundef %16)
  %20 = load i32, ptr %2, align 4
  %21 = add i32 %20, 2
  store i32 %21, ptr %2, align 4
  %22 = load i32, ptr @hf_x11_replylength, align 4
  %23 = tail call ptr @proto_tree_add_item(ptr noundef %3, i32 noundef %22, ptr noundef %0, i32 noundef %21, i32 noundef 4, i32 noundef %4)
  %24 = load i32, ptr %2, align 4
  %25 = add i32 %24, 4
  store i32 %25, ptr %2, align 4
  %26 = tail call i32 @tvb_get_uint32(ptr noundef %0, i32 noundef %25, i32 noundef %4)
  %27 = load i32, ptr @hf_x11_render_QueryPictIndexValues_reply_num_values, align 4
  %28 = load i32, ptr %2, align 4
  %29 = tail call ptr @proto_tree_add_item(ptr noundef %3, i32 noundef %27, ptr noundef %0, i32 noundef %28, i32 noundef 4, i32 noundef %4)
  %30 = load i32, ptr %2, align 4
  %31 = add i32 %30, 4
  store i32 %31, ptr %2, align 4
  %32 = load i32, ptr @hf_x11_unused, align 4
  %33 = tail call ptr @proto_tree_add_item(ptr noundef %3, i32 noundef %32, ptr noundef %0, i32 noundef %31, i32 noundef 20, i32 noundef 0)
  %34 = load i32, ptr %2, align 4
  %35 = add i32 %34, 20
  store i32 %35, ptr %2, align 4
  %36 = icmp sgt i32 %26, 0
  br i1 %36, label %.lr.ph.i, label %struct_render_INDEXVALUE.exit

.lr.ph.i:                                         ; preds = %5, %.lr.ph.i
  %37 = phi i32 [ %62, %.lr.ph.i ], [ %35, %5 ]
  %.031.i = phi i32 [ %63, %.lr.ph.i ], [ 0, %5 ]
  %38 = load i32, ptr @hf_x11_struct_render_INDEXVALUE, align 4
  %39 = tail call ptr @proto_tree_add_item(ptr noundef %3, i32 noundef %38, ptr noundef %0, i32 noundef %37, i32 noundef 12, i32 noundef 0)
  %40 = load i32, ptr @ett_x11_rectangle, align 4
  %41 = tail call ptr @proto_item_add_subtree(ptr noundef %39, i32 noundef %40)
  %42 = load i32, ptr @hf_x11_struct_render_INDEXVALUE_pixel, align 4
  %43 = load i32, ptr %2, align 4
  %44 = tail call ptr @proto_tree_add_item(ptr noundef %41, i32 noundef %42, ptr noundef %0, i32 noundef %43, i32 noundef 4, i32 noundef %4)
  %45 = load i32, ptr %2, align 4
  %46 = add i32 %45, 4
  store i32 %46, ptr %2, align 4
  %47 = load i32, ptr @hf_x11_struct_render_INDEXVALUE_red, align 4
  %48 = tail call ptr @proto_tree_add_item(ptr noundef %41, i32 noundef %47, ptr noundef %0, i32 noundef %46, i32 noundef 2, i32 noundef %4)
  %49 = load i32, ptr %2, align 4
  %50 = add i32 %49, 2
  store i32 %50, ptr %2, align 4
  %51 = load i32, ptr @hf_x11_struct_render_INDEXVALUE_green, align 4
  %52 = tail call ptr @proto_tree_add_item(ptr noundef %41, i32 noundef %51, ptr noundef %0, i32 noundef %50, i32 noundef 2, i32 noundef %4)
  %53 = load i32, ptr %2, align 4
  %54 = add i32 %53, 2
  store i32 %54, ptr %2, align 4
  %55 = load i32, ptr @hf_x11_struct_render_INDEXVALUE_blue, align 4
  %56 = tail call ptr @proto_tree_add_item(ptr noundef %41, i32 noundef %55, ptr noundef %0, i32 noundef %54, i32 noundef 2, i32 noundef %4)
  %57 = load i32, ptr %2, align 4
  %58 = add i32 %57, 2
  store i32 %58, ptr %2, align 4
  %59 = load i32, ptr @hf_x11_struct_render_INDEXVALUE_alpha, align 4
  %60 = tail call ptr @proto_tree_add_item(ptr noundef %41, i32 noundef %59, ptr noundef %0, i32 noundef %58, i32 noundef 2, i32 noundef %4)
  %61 = load i32, ptr %2, align 4
  %62 = add i32 %61, 2
  store i32 %62, ptr %2, align 4
  %63 = add nuw nsw i32 %.031.i, 1
  %exitcond.not.i = icmp eq i32 %63, %26
  br i1 %exitcond.not.i, label %struct_render_INDEXVALUE.exit, label %.lr.ph.i, !llvm.loop !86

struct_render_INDEXVALUE.exit:                    ; preds = %.lr.ph.i, %5
  ret void
}